target datalayout = "e-m:e-p270:32:32-p271:32:32-p272:64:64-i64:64-i128:128-f80:128-n8:16:32:64-S128"
target triple = "x86_64-pc-linux-gnu"

%struct.jpeg_common_struct = type { ptr, ptr, ptr, ptr, i32, i32 }
%struct.jpeg_error_mgr = type { ptr, ptr, ptr, ptr, ptr, i32, %union.anon, i32, i64, ptr, i32, ptr, i32, i32 }
%union.anon = type { [8 x i32], [48 x i8] }
%struct.my_memory_mgr = type { %struct.jpeg_memory_mgr, [2 x ptr], [2 x ptr], ptr, ptr, i64, i32 }
%struct.jpeg_memory_mgr = type { ptr, ptr, ptr, ptr, ptr, ptr, ptr, ptr, ptr, ptr, ptr, i64, i64 }
%struct.small_pool_struct = type { ptr, i64, i64 }

@first_pool_slop = internal constant [2 x i64] [i64 1600, i64 16000], align 16
@extra_pool_slop = internal constant [2 x i64] [i64 0, i64 5000], align 16

; Function Attrs: nounwind uwtable
define internal i64 @round_up_pow2(i64 noundef %0, i64 noundef %1) #0 {
  %3 = alloca i64, align 8
  %4 = alloca i64, align 8
  store i64 %0, ptr %3, align 8, !tbaa !14
  store i64 %1, ptr %4, align 8, !tbaa !14
  %5 = load i64, ptr %3, align 8, !tbaa !14
  %6 = load i64, ptr %4, align 8, !tbaa !14
  %7 = add i64 %5, %6
  %8 = sub i64 %7, 1
  %9 = load i64, ptr %4, align 8, !tbaa !14
  %10 = sub i64 %9, 1
  %11 = xor i64 %10, -1
  %12 = and i64 %8, %11
  ret i64 %12
}

; Function Attrs: nounwind uwtable
define internal void @out_of_memory(ptr noundef %0, i32 noundef %1) #0 {
  %3 = alloca ptr, align 8
  %4 = alloca i32, align 4
  store ptr %0, ptr %3, align 8, !tbaa !3
  store i32 %1, ptr %4, align 4, !tbaa !40
  %5 = load ptr, ptr %3, align 8, !tbaa !3
  %6 = getelementptr inbounds nuw %struct.jpeg_common_struct, ptr %5, i32 0, i32 0
  %7 = load ptr, ptr %6, align 8, !tbaa !16
  %8 = getelementptr inbounds nuw %struct.jpeg_error_mgr, ptr %7, i32 0, i32 5
  store i32 54, ptr %8, align 8, !tbaa !17
  %9 = load i32, ptr %4, align 4, !tbaa !40
  %10 = load ptr, ptr %3, align 8, !tbaa !3
  %11 = getelementptr inbounds nuw %struct.jpeg_common_struct, ptr %10, i32 0, i32 0
  %12 = load ptr, ptr %11, align 8, !tbaa !16
  %13 = getelementptr inbounds nuw %struct.jpeg_error_mgr, ptr %12, i32 0, i32 6
  %14 = getelementptr inbounds [8 x i32], ptr %13, i64 0, i64 0
  store i32 %9, ptr %14, align 4, !tbaa !22
  %15 = load ptr, ptr %3, align 8, !tbaa !3
  %16 = getelementptr inbounds nuw %struct.jpeg_common_struct, ptr %15, i32 0, i32 0
  %17 = load ptr, ptr %16, align 8, !tbaa !16
  %18 = getelementptr inbounds nuw %struct.jpeg_error_mgr, ptr %17, i32 0, i32 0
  %19 = load ptr, ptr %18, align 8, !tbaa !20
  %20 = load ptr, ptr %3, align 8, !tbaa !3
  call void %19(ptr noundef %20)
  ret void
}

; Function Attrs: nounwind uwtable
define internal ptr @alloc_small(ptr noundef %0, i32 noundef %1, i64 noundef %2) #0 {
  %4 = alloca ptr, align 8
  %5 = alloca i32, align 4
  %6 = alloca i64, align 8
  %7 = alloca ptr, align 8
  %8 = alloca ptr, align 8
  %9 = alloca ptr, align 8
  %10 = alloca ptr, align 8
  %11 = alloca i64, align 8
  %12 = alloca i64, align 8
  store ptr %0, ptr %4, align 8, !tbaa !3
  store i32 %1, ptr %5, align 4, !tbaa !40
  store i64 %2, ptr %6, align 8, !tbaa !14
  call void @llvm.lifetime.start.p0(i64 8, ptr %7) #8
  %13 = load ptr, ptr %4, align 8, !tbaa !3
  %14 = getelementptr inbounds nuw %struct.jpeg_common_struct, ptr %13, i32 0, i32 1
  %15 = load ptr, ptr %14, align 8, !tbaa !8
  store ptr %15, ptr %7, align 8, !tbaa !21
  call void @llvm.lifetime.start.p0(i64 8, ptr %8) #8
  call void @llvm.lifetime.start.p0(i64 8, ptr %9) #8
  call void @llvm.lifetime.start.p0(i64 8, ptr %10) #8
  call void @llvm.lifetime.start.p0(i64 8, ptr %11) #8
  call void @llvm.lifetime.start.p0(i64 8, ptr %12) #8
  %16 = load i64, ptr %6, align 8, !tbaa !14
  %17 = icmp ugt i64 %16, 1000000000
  br i1 %17, label %18, label %20

18:                                               ; preds = %3
  %19 = load ptr, ptr %4, align 8, !tbaa !3
  call void @out_of_memory(ptr noundef %19, i32 noundef 7)
  br label %20

20:                                               ; preds = %18, %3
  %21 = load i64, ptr %6, align 8, !tbaa !14
  %22 = call i64 @round_up_pow2(i64 noundef %21, i64 noundef 32)
  store i64 %22, ptr %6, align 8, !tbaa !14
  %23 = load i64, ptr %6, align 8, !tbaa !14
  %24 = add i64 24, %23
  %25 = add i64 %24, 32
  %26 = sub i64 %25, 1
  %27 = icmp ugt i64 %26, 1000000000
  br i1 %27, label %28, label %30

28:                                               ; preds = %20
  %29 = load ptr, ptr %4, align 8, !tbaa !3
  call void @out_of_memory(ptr noundef %29, i32 noundef 1)
  br label %30

30:                                               ; preds = %28, %20
  %31 = load i32, ptr %5, align 4, !tbaa !40
  %32 = icmp slt i32 %31, 0
  br i1 %32, label %36, label %33

33:                                               ; preds = %30
  %34 = load i32, ptr %5, align 4, !tbaa !40
  %35 = icmp sge i32 %34, 2
  br i1 %35, label %36, label %53

36:                                               ; preds = %33, %30
  %37 = load ptr, ptr %4, align 8, !tbaa !3
  %38 = getelementptr inbounds nuw %struct.jpeg_common_struct, ptr %37, i32 0, i32 0
  %39 = load ptr, ptr %38, align 8, !tbaa !16
  %40 = getelementptr inbounds nuw %struct.jpeg_error_mgr, ptr %39, i32 0, i32 5
  store i32 14, ptr %40, align 8, !tbaa !17
  %41 = load i32, ptr %5, align 4, !tbaa !40
  %42 = load ptr, ptr %4, align 8, !tbaa !3
  %43 = getelementptr inbounds nuw %struct.jpeg_common_struct, ptr %42, i32 0, i32 0
  %44 = load ptr, ptr %43, align 8, !tbaa !16
  %45 = getelementptr inbounds nuw %struct.jpeg_error_mgr, ptr %44, i32 0, i32 6
  %46 = getelementptr inbounds [8 x i32], ptr %45, i64 0, i64 0
  store i32 %41, ptr %46, align 4, !tbaa !22
  %47 = load ptr, ptr %4, align 8, !tbaa !3
  %48 = getelementptr inbounds nuw %struct.jpeg_common_struct, ptr %47, i32 0, i32 0
  %49 = load ptr, ptr %48, align 8, !tbaa !16
  %50 = getelementptr inbounds nuw %struct.jpeg_error_mgr, ptr %49, i32 0, i32 0
  %51 = load ptr, ptr %50, align 8, !tbaa !20
  %52 = load ptr, ptr %4, align 8, !tbaa !3
  call void %51(ptr noundef %52)
  br label %53

53:                                               ; preds = %36, %33
  store ptr null, ptr %9, align 8, !tbaa !41
  %54 = load ptr, ptr %7, align 8, !tbaa !21
  %55 = getelementptr inbounds nuw %struct.my_memory_mgr, ptr %54, i32 0, i32 1
  %56 = load i32, ptr %5, align 4, !tbaa !40
  %57 = sext i32 %56 to i64
  %58 = getelementptr inbounds [2 x ptr], ptr %55, i64 0, i64 %57
  %59 = load ptr, ptr %58, align 8, !tbaa !41
  store ptr %59, ptr %8, align 8, !tbaa !41
  br label %60

60:                                               ; preds = %70, %53
  %61 = load ptr, ptr %8, align 8, !tbaa !41
  %62 = icmp ne ptr %61, null
  br i1 %62, label %63, label %75

63:                                               ; preds = %60
  %64 = load ptr, ptr %8, align 8, !tbaa !41
  %65 = getelementptr inbounds nuw %struct.small_pool_struct, ptr %64, i32 0, i32 2
  %66 = load i64, ptr %65, align 8, !tbaa !50
  %67 = load i64, ptr %6, align 8, !tbaa !14
  %68 = icmp uge i64 %66, %67
  br i1 %68, label %69, label %70

69:                                               ; preds = %63
  br label %75

70:                                               ; preds = %63
  %71 = load ptr, ptr %8, align 8, !tbaa !41
  store ptr %71, ptr %9, align 8, !tbaa !41
  %72 = load ptr, ptr %8, align 8, !tbaa !41
  %73 = getelementptr inbounds nuw %struct.small_pool_struct, ptr %72, i32 0, i32 0
  %74 = load ptr, ptr %73, align 8, !tbaa !52
  store ptr %74, ptr %8, align 8, !tbaa !41
  br label %60, !llvm.loop !53

75:                                               ; preds = %69, %60
  %76 = load ptr, ptr %8, align 8, !tbaa !41
  %77 = icmp eq ptr %76, null
  br i1 %77, label %78, label %152

78:                                               ; preds = %75
  %79 = load i64, ptr %6, align 8, !tbaa !14
  %80 = add i64 24, %79
  %81 = add i64 %80, 32
  %82 = sub i64 %81, 1
  store i64 %82, ptr %11, align 8, !tbaa !14
  %83 = load ptr, ptr %9, align 8, !tbaa !41
  %84 = icmp eq ptr %83, null
  br i1 %84, label %85, label %90

85:                                               ; preds = %78
  %86 = load i32, ptr %5, align 4, !tbaa !40
  %87 = sext i32 %86 to i64
  %88 = getelementptr inbounds [2 x i64], ptr @first_pool_slop, i64 0, i64 %87
  %89 = load i64, ptr %88, align 8, !tbaa !14
  store i64 %89, ptr %12, align 8, !tbaa !14
  br label %95

90:                                               ; preds = %78
  %91 = load i32, ptr %5, align 4, !tbaa !40
  %92 = sext i32 %91 to i64
  %93 = getelementptr inbounds [2 x i64], ptr @extra_pool_slop, i64 0, i64 %92
  %94 = load i64, ptr %93, align 8, !tbaa !14
  store i64 %94, ptr %12, align 8, !tbaa !14
  br label %95

95:                                               ; preds = %90, %85
  %96 = load i64, ptr %12, align 8, !tbaa !14
  %97 = load i64, ptr %11, align 8, !tbaa !14
  %98 = sub i64 1000000000, %97
  %99 = icmp ugt i64 %96, %98
  br i1 %99, label %100, label %103

100:                                              ; preds = %95
  %101 = load i64, ptr %11, align 8, !tbaa !14
  %102 = sub i64 1000000000, %101
  store i64 %102, ptr %12, align 8, !tbaa !14
  br label %103

103:                                              ; preds = %100, %95
  br label %104

104:                                              ; preds = %120, %103
  %105 = load ptr, ptr %4, align 8, !tbaa !3
  %106 = load i64, ptr %11, align 8, !tbaa !14
  %107 = load i64, ptr %12, align 8, !tbaa !14
  %108 = add i64 %106, %107
  %109 = call ptr @jpeg_get_small(ptr noundef %105, i64 noundef %108)
  store ptr %109, ptr %8, align 8, !tbaa !41
  %110 = load ptr, ptr %8, align 8, !tbaa !41
  %111 = icmp ne ptr %110, null
  br i1 %111, label %112, label %113

112:                                              ; preds = %104
  br label %121

113:                                              ; preds = %104
  %114 = load i64, ptr %12, align 8, !tbaa !14
  %115 = udiv i64 %114, 2
  store i64 %115, ptr %12, align 8, !tbaa !14
  %116 = load i64, ptr %12, align 8, !tbaa !14
  %117 = icmp ult i64 %116, 50
  br i1 %117, label %118, label %120

118:                                              ; preds = %113
  %119 = load ptr, ptr %4, align 8, !tbaa !3
  call void @out_of_memory(ptr noundef %119, i32 noundef 2)
  br label %120

120:                                              ; preds = %118, %113
  br label %104

121:                                              ; preds = %112
  %122 = load i64, ptr %11, align 8, !tbaa !14
  %123 = load i64, ptr %12, align 8, !tbaa !14
  %124 = add i64 %122, %123
  %125 = load ptr, ptr %7, align 8, !tbaa !21
  %126 = getelementptr inbounds nuw %struct.my_memory_mgr, ptr %125, i32 0, i32 5
  %127 = load i64, ptr %126, align 8, !tbaa !49
  %128 = add i64 %127, %124
  store i64 %128, ptr %126, align 8, !tbaa !49
  %129 = load ptr, ptr %8, align 8, !tbaa !41
  %130 = getelementptr inbounds nuw %struct.small_pool_struct, ptr %129, i32 0, i32 0
  store ptr null, ptr %130, align 8, !tbaa !52
  %131 = load ptr, ptr %8, align 8, !tbaa !41
  %132 = getelementptr inbounds nuw %struct.small_pool_struct, ptr %131, i32 0, i32 1
  store i64 0, ptr %132, align 8, !tbaa !54
  %133 = load i64, ptr %6, align 8, !tbaa !14
  %134 = load i64, ptr %12, align 8, !tbaa !14
  %135 = add i64 %133, %134
  %136 = load ptr, ptr %8, align 8, !tbaa !41
  %137 = getelementptr inbounds nuw %struct.small_pool_struct, ptr %136, i32 0, i32 2
  store i64 %135, ptr %137, align 8, !tbaa !50
  %138 = load ptr, ptr %9, align 8, !tbaa !41
  %139 = icmp eq ptr %138, null
  br i1 %139, label %140, label %147

140:                                              ; preds = %121
  %141 = load ptr, ptr %8, align 8, !tbaa !41
  %142 = load ptr, ptr %7, align 8, !tbaa !21
  %143 = getelementptr inbounds nuw %struct.my_memory_mgr, ptr %142, i32 0, i32 1
  %144 = load i32, ptr %5, align 4, !tbaa !40
  %145 = sext i32 %144 to i64
  %146 = getelementptr inbounds [2 x ptr], ptr %143, i64 0, i64 %145
  store ptr %141, ptr %146, align 8, !tbaa !41
  br label %151

147:                                              ; preds = %121
  %148 = load ptr, ptr %8, align 8, !tbaa !41
  %149 = load ptr, ptr %9, align 8, !tbaa !41
  %150 = getelementptr inbounds nuw %struct.small_pool_struct, ptr %149, i32 0, i32 0
  store ptr %148, ptr %150, align 8, !tbaa !52
  br label %151

151:                                              ; preds = %147, %140
  br label %152

152:                                              ; preds = %151, %75
  %153 = load ptr, ptr %8, align 8, !tbaa !41
  store ptr %153, ptr %10, align 8, !tbaa !55
  %154 = load ptr, ptr %10, align 8, !tbaa !55
  %155 = getelementptr inbounds nuw i8, ptr %154, i64 24
  store ptr %155, ptr %10, align 8, !tbaa !55
  %156 = load ptr, ptr %10, align 8, !tbaa !55
  %157 = ptrtoint ptr %156 to i64
  %158 = urem i64 %157, 32
  %159 = icmp ne i64 %158, 0
  br i1 %159, label %160, label %167

160:                                              ; preds = %152
  %161 = load ptr, ptr %10, align 8, !tbaa !55
  %162 = ptrtoint ptr %161 to i64
  %163 = urem i64 %162, 32
  %164 = sub i64 32, %163
  %165 = load ptr, ptr %10, align 8, !tbaa !55
  %166 = getelementptr inbounds nuw i8, ptr %165, i64 %164
  store ptr %166, ptr %10, align 8, !tbaa !55
  br label %167

167:                                              ; preds = %160, %152
  %168 = load ptr, ptr %8, align 8, !tbaa !41
  %169 = getelementptr inbounds nuw %struct.small_pool_struct, ptr %168, i32 0, i32 1
  %170 = load i64, ptr %169, align 8, !tbaa !54
  %171 = load ptr, ptr %10, align 8, !tbaa !55
  %172 = getelementptr inbounds nuw i8, ptr %171, i64 %170
  store ptr %172, ptr %10, align 8, !tbaa !55
  %173 = load i64, ptr %6, align 8, !tbaa !14
  %174 = load ptr, ptr %8, align 8, !tbaa !41
  %175 = getelementptr inbounds nuw %struct.small_pool_struct, ptr %174, i32 0, i32 1
  %176 = load i64, ptr %175, align 8, !tbaa !54
  %177 = add i64 %176, %173
  store i64 %177, ptr %175, align 8, !tbaa !54
  %178 = load i64, ptr %6, align 8, !tbaa !14
  %179 = load ptr, ptr %8, align 8, !tbaa !41
  %180 = getelementptr inbounds nuw %struct.small_pool_struct, ptr %179, i32 0, i32 2
  %181 = load i64, ptr %180, align 8, !tbaa !50
  %182 = sub i64 %181, %178
  store i64 %182, ptr %180, align 8, !tbaa !50
  %183 = load ptr, ptr %10, align 8, !tbaa !55
  call void @llvm.lifetime.end.p0(i64 8, ptr %12) #8
  call void @llvm.lifetime.end.p0(i64 8, ptr %11) #8
  call void @llvm.lifetime.end.p0(i64 8, ptr %10) #8
  call void @llvm.lifetime.end.p0(i64 8, ptr %9) #8
  call void @llvm.lifetime.end.p0(i64 8, ptr %8) #8
  call void @llvm.lifetime.end.p0(i64 8, ptr %7) #8
  ret ptr %183
}