; Function Attrs: nounwind uwtable
define internal nonnull ptr @alloc_small(ptr noundef %0, i32 noundef %1, i64 noundef %2) #0 {
  %4 = getelementptr inbounds nuw i8, ptr %0, i64 8
  %5 = load ptr, ptr %4, align 8, !tbaa !3
  %6 = icmp ugt i64 %2, 1000000000
  br i1 %6, label %7, label %13

7:                                                ; preds = %3
  %8 = load ptr, ptr %0, align 8, !tbaa !14
  %9 = getelementptr inbounds nuw i8, ptr %8, i64 40
  store i32 54, ptr %9, align 8, !tbaa !15
  %10 = getelementptr inbounds nuw i8, ptr %8, i64 44
  store i32 7, ptr %10, align 4, !tbaa !18
  %11 = load ptr, ptr %0, align 8, !tbaa !14
  %12 = load ptr, ptr %11, align 8, !tbaa !19
  tail call void %12(ptr noundef nonnull %0) #9
  br label %13

13:                                               ; preds = %7, %3
  %14 = add i64 %2, 31
  %15 = and i64 %14, -32
  %16 = add i64 %15, 55
  %17 = icmp ugt i64 %16, 1000000000
  br i1 %17, label %18, label %24

18:                                               ; preds = %13
  %19 = load ptr, ptr %0, align 8, !tbaa !14
  %20 = getelementptr inbounds nuw i8, ptr %19, i64 40
  store i32 54, ptr %20, align 8, !tbaa !15
  %21 = getelementptr inbounds nuw i8, ptr %19, i64 44
  store i32 1, ptr %21, align 4, !tbaa !18
  %22 = load ptr, ptr %0, align 8, !tbaa !14
  %23 = load ptr, ptr %22, align 8, !tbaa !19
  tail call void %23(ptr noundef nonnull %0) #9
  br label %24

24:                                               ; preds = %18, %13
  %or.cond = icmp ugt i32 %1, 1
  br i1 %or.cond, label %25, label %31

25:                                               ; preds = %24
  %26 = load ptr, ptr %0, align 8, !tbaa !14
  %27 = getelementptr inbounds nuw i8, ptr %26, i64 40
  store i32 14, ptr %27, align 8, !tbaa !15
  %28 = getelementptr inbounds nuw i8, ptr %26, i64 44
  store i32 %1, ptr %28, align 4, !tbaa !18
  %29 = load ptr, ptr %0, align 8, !tbaa !14
  %30 = load ptr, ptr %29, align 8, !tbaa !19
  tail call void %30(ptr noundef nonnull %0) #9
  br label %31

31:                                               ; preds = %24, %25
  %32 = getelementptr inbounds nuw i8, ptr %5, i64 104
  %33 = sext i32 %1 to i64
  %34 = getelementptr inbounds [2 x ptr], ptr %32, i64 0, i64 %33
  %.06374 = load ptr, ptr %34, align 8, !tbaa !38
  %cond75 = icmp eq ptr %.06374, null
  br i1 %cond75, label %._crit_edge, label %.lr.ph

35:                                               ; preds = %.lr.ph
  %.063 = load ptr, ptr %.06376, align 8, !tbaa !38
  %cond = icmp eq ptr %.063, null
  br i1 %cond, label %._crit_edge, label %.lr.ph, !llvm.loop !40

.lr.ph:                                           ; preds = %31, %35
  %.06376 = phi ptr [ %.063, %35 ], [ %.06374, %31 ]
  %36 = getelementptr inbounds nuw i8, ptr %.06376, i64 16
  %37 = load i64, ptr %36, align 8, !tbaa !42
  %.not68 = icmp ult i64 %37, %15
  br i1 %.not68, label %35, label %.loopexit.loopexit, !llvm.loop !40

._crit_edge:                                      ; preds = %35, %31
  %.062.lcssa = phi ptr [ null, %31 ], [ %.06376, %35 ]
  %38 = icmp eq ptr %.062.lcssa, null
  %first_pool_slop.extra_pool_slop = select i1 %38, ptr @first_pool_slop, ptr @extra_pool_slop
  %.0.in = getelementptr inbounds [2 x i64], ptr %first_pool_slop.extra_pool_slop, i64 0, i64 %33
  %.0 = load i64, ptr %.0.in, align 8, !tbaa !12
  %39 = sub i64 999999945, %15
  %.1 = tail call i64 @llvm.umin.i64(i64 %.0, i64 %39)
  %40 = add i64 %.1, %16
  %41 = tail call ptr @jpeg_get_small(ptr noundef %0, i64 noundef %40) #9
  %.not6977 = icmp eq ptr %41, null
  br i1 %.not6977, label %.lr.ph80, label %._crit_edge81

.lr.ph80:                                         ; preds = %._crit_edge, %50
  %.278 = phi i64 [ %42, %50 ], [ %.1, %._crit_edge ]
  %42 = lshr i64 %.278, 1
  %43 = icmp ult i64 %.278, 100
  br i1 %43, label %44, label %50

44:                                               ; preds = %.lr.ph80
  %45 = load ptr, ptr %0, align 8, !tbaa !14
  %46 = getelementptr inbounds nuw i8, ptr %45, i64 40
  store i32 54, ptr %46, align 8, !tbaa !15
  %47 = getelementptr inbounds nuw i8, ptr %45, i64 44
  store i32 2, ptr %47, align 4, !tbaa !18
  %48 = load ptr, ptr %0, align 8, !tbaa !14
  %49 = load ptr, ptr %48, align 8, !tbaa !19
  tail call void %49(ptr noundef nonnull %0) #9
  br label %50

50:                                               ; preds = %44, %.lr.ph80
  %51 = add i64 %42, %16
  %52 = tail call ptr @jpeg_get_small(ptr noundef %0, i64 noundef %51) #9
  %.not69 = icmp eq ptr %52, null
  br i1 %.not69, label %.lr.ph80, label %._crit_edge81

._crit_edge81:                                    ; preds = %50, %._crit_edge
  %.2.lcssa = phi i64 [ %.1, %._crit_edge ], [ %42, %50 ]
  %.lcssa71 = phi i64 [ %40, %._crit_edge ], [ %51, %50 ]
  %.lcssa = phi ptr [ %41, %._crit_edge ], [ %52, %50 ]
  %53 = getelementptr inbounds nuw i8, ptr %5, i64 152
  %54 = load i64, ptr %53, align 8, !tbaa !37
  %55 = add i64 %54, %.lcssa71
  store i64 %55, ptr %53, align 8, !tbaa !37
  %56 = add i64 %.2.lcssa, %15
  %57 = getelementptr inbounds nuw i8, ptr %.lcssa, i64 16
  tail call void @llvm.memset.p0.i64(ptr noundef nonnull align 8 dereferenceable(16) %.lcssa, i8 0, i64 16, i1 false)
  store i64 %56, ptr %57, align 8, !tbaa !42
  br i1 %38, label %58, label %59

58:                                               ; preds = %._crit_edge81
  store ptr %.lcssa, ptr %34, align 8, !tbaa !38
  br label %.loopexit

59:                                               ; preds = %._crit_edge81
  store ptr %.lcssa, ptr %.062.lcssa, align 8, !tbaa !44
  br label %.loopexit

.loopexit.loopexit:                               ; preds = %.lr.ph
  %.phi.trans.insert = getelementptr inbounds nuw i8, ptr %.06376, i64 8
  %.pre = load i64, ptr %.phi.trans.insert, align 8, !tbaa !45
  br label %.loopexit

.loopexit:                                        ; preds = %.loopexit.loopexit, %58, %59
  %60 = phi i64 [ %56, %58 ], [ %56, %59 ], [ %37, %.loopexit.loopexit ]
  %61 = phi i64 [ 0, %58 ], [ 0, %59 ], [ %.pre, %.loopexit.loopexit ]
  %.164 = phi ptr [ %.lcssa, %58 ], [ %.lcssa, %59 ], [ %.06376, %.loopexit.loopexit ]
  %62 = getelementptr inbounds nuw i8, ptr %.164, i64 24
  %63 = ptrtoint ptr %62 to i64
  %64 = and i64 %63, 31
  %.not70 = icmp eq i64 %64, 0
  %65 = sub nuw nsw i64 32, %64
  %.061.idx = select i1 %.not70, i64 0, i64 %65
  %.061 = getelementptr inbounds nuw i8, ptr %62, i64 %.061.idx
  %66 = getelementptr inbounds nuw i8, ptr %.164, i64 8
  %67 = getelementptr inbounds nuw i8, ptr %.061, i64 %61
  %68 = add i64 %61, %15
  store i64 %68, ptr %66, align 8, !tbaa !45
  %69 = getelementptr inbounds nuw i8, ptr %.164, i64 16
  %70 = sub i64 %60, %15
  store i64 %70, ptr %69, align 8, !tbaa !42
  ret ptr %67
}